target datalayout = "e-m:e-p270:32:32-p271:32:32-p272:64:64-i64:64-i128:128-f80:128-n8:16:32:64-S128"
target triple = "x86_64-pc-linux-gnu"

%struct.stb_vorbis = type { i32, i32, i32, i32, i32, ptr, i32, ptr, ptr, i32, i32, ptr, ptr, ptr, i32, i8, i32, %struct.ProbedPage, %struct.ProbedPage, %struct.stb_vorbis_alloc, i32, i32, i32, i32, [2 x i32], i32, i32, i32, ptr, i32, [64 x i16], ptr, i32, [64 x i16], ptr, i32, ptr, i32, [64 x %struct.Mode], i32, [16 x ptr], [16 x ptr], [16 x ptr], i32, [16 x ptr], i32, i32, [2 x ptr], [2 x ptr], [2 x ptr], [2 x ptr], [2 x ptr], i32, i32, i32, [255 x i8], i8, i8, i8, i32, i32, i32, i32, i32, i32, i32, i32, i32, i32, i32, [4 x %struct.CRCscan], i32, i32 }
%struct.ProbedPage = type { i32, i32, i32 }
%struct.stb_vorbis_alloc = type { ptr, i32 }
%struct.Mode = type { i8, i8, i16, i16 }
%struct.CRCscan = type { i32, i32, i32, i32, i32 }

; Function Attrs: nounwind uwtable
define zeroext i8 @get8(ptr noundef %0) #0 {
  %2 = alloca i8, align 1
  %3 = alloca ptr, align 8
  %4 = alloca i32, align 4
  %5 = alloca i32, align 4
  store ptr %0, ptr %3, align 8, !tbaa !3
  %6 = load ptr, ptr %3, align 8, !tbaa !3
  %7 = getelementptr inbounds nuw %struct.stb_vorbis, ptr %6, i32 0, i32 11
  %8 = load ptr, ptr %7, align 8, !tbaa !68
  %9 = icmp ne ptr %8, null
  br i1 %9, label %10, label %27

10:                                               ; preds = %1
  %11 = load ptr, ptr %3, align 8, !tbaa !3
  %12 = getelementptr inbounds nuw %struct.stb_vorbis, ptr %11, i32 0, i32 11
  %13 = load ptr, ptr %12, align 8, !tbaa !68
  %14 = load ptr, ptr %3, align 8, !tbaa !3
  %15 = getelementptr inbounds nuw %struct.stb_vorbis, ptr %14, i32 0, i32 13
  %16 = load ptr, ptr %15, align 8, !tbaa !69
  %17 = icmp uge ptr %13, %16
  br i1 %17, label %18, label %21

18:                                               ; preds = %10
  %19 = load ptr, ptr %3, align 8, !tbaa !3
  %20 = getelementptr inbounds nuw %struct.stb_vorbis, ptr %19, i32 0, i32 22
  store i32 1, ptr %20, align 8, !tbaa !17
  store i8 0, ptr %2, align 1
  br label %41

21:                                               ; preds = %10
  %22 = load ptr, ptr %3, align 8, !tbaa !3
  %23 = getelementptr inbounds nuw %struct.stb_vorbis, ptr %22, i32 0, i32 11
  %24 = load ptr, ptr %23, align 8, !tbaa !68
  %25 = getelementptr inbounds nuw i8, ptr %24, i32 1
  store ptr %25, ptr %23, align 8, !tbaa !68
  %26 = load i8, ptr %24, align 1, !tbaa !30
  store i8 %26, ptr %2, align 1
  br label %41

27:                                               ; preds = %1
  call void @llvm.lifetime.start.p0(i64 4, ptr %4) #11
  %28 = load ptr, ptr %3, align 8, !tbaa !3
  %29 = getelementptr inbounds nuw %struct.stb_vorbis, ptr %28, i32 0, i32 8
  %30 = load ptr, ptr %29, align 8, !tbaa !70
  %31 = call i32 @fgetc(ptr noundef %30)
  store i32 %31, ptr %4, align 4, !tbaa !8
  %32 = load i32, ptr %4, align 4, !tbaa !8
  %33 = icmp eq i32 %32, -1
  br i1 %33, label %34, label %37

34:                                               ; preds = %27
  %35 = load ptr, ptr %3, align 8, !tbaa !3
  %36 = getelementptr inbounds nuw %struct.stb_vorbis, ptr %35, i32 0, i32 22
  store i32 1, ptr %36, align 8, !tbaa !17
  store i8 0, ptr %2, align 1
  store i32 1, ptr %5, align 4
  br label %40

37:                                               ; preds = %27
  %38 = load i32, ptr %4, align 4, !tbaa !8
  %39 = trunc i32 %38 to i8
  store i8 %39, ptr %2, align 1
  store i32 1, ptr %5, align 4
  br label %40

40:                                               ; preds = %37, %34
  call void @llvm.lifetime.end.p0(i64 4, ptr %4) #11
  br label %41

41:                                               ; preds = %40, %21, %18
  %42 = load i8, ptr %2, align 1
  ret i8 %42
}