; Function Attrs: nofree nounwind uwtable
define zeroext i8 @get8(ptr noundef captures(none) %0) local_unnamed_addr #17 {
  %2 = getelementptr inbounds nuw i8, ptr %0, i64 64
  %3 = load ptr, ptr %2, align 8, !tbaa !59
  %.not = icmp eq ptr %3, null
  br i1 %.not, label %12, label %4

4:                                                ; preds = %1
  %5 = getelementptr inbounds nuw i8, ptr %0, i64 80
  %6 = load ptr, ptr %5, align 8, !tbaa !60
  %.not11 = icmp ult ptr %3, %6
  br i1 %.not11, label %9, label %7

7:                                                ; preds = %4
  %8 = getelementptr inbounds nuw i8, ptr %0, i64 152
  store i32 1, ptr %8, align 8, !tbaa !61
  br label %21

9:                                                ; preds = %4
  %10 = getelementptr inbounds nuw i8, ptr %3, i64 1
  store ptr %10, ptr %2, align 8, !tbaa !59
  %11 = load i8, ptr %3, align 1, !tbaa !23
  br label %21

12:                                               ; preds = %1
  %13 = getelementptr inbounds nuw i8, ptr %0, i64 48
  %14 = load ptr, ptr %13, align 8, !tbaa !62
  %15 = tail call i32 @fgetc(ptr noundef %14)
  %16 = icmp eq i32 %15, -1
  br i1 %16, label %17, label %19

17:                                               ; preds = %12
  %18 = getelementptr inbounds nuw i8, ptr %0, i64 152
  store i32 1, ptr %18, align 8, !tbaa !61
  br label %21

19:                                               ; preds = %12
  %20 = trunc i32 %15 to i8
  br label %21

21:                                               ; preds = %17, %19, %9, %7
  %.0 = phi i8 [ 0, %7 ], [ %11, %9 ], [ 0, %17 ], [ %20, %19 ]
  ret i8 %.0
}